; Function Attrs: mustprogress uwtable
define noundef i32 @_ZN10colvarbias16set_state_paramsERKNSt7__cxx1112basic_stringIcSt11char_traitsIcESaIcEEE(ptr noundef nonnull align 8 dereferenceable(312) %0, ptr noundef nonnull align 8 dereferenceable(32) %1) unnamed_addr #0 align 2 {
  %3 = alloca i64, align 8
  %4 = load ptr, ptr %0, align 8
  %5 = getelementptr i8, ptr %4, i64 -24
  %6 = load i64, ptr %5, align 8
  %7 = getelementptr inbounds i8, ptr %0, i64 %6
  %8 = getelementptr inbounds i8, ptr %0, i64 264
  %9 = load i64, ptr @_ZN12colvarmodule2itE, align 8
  store i64 %9, ptr %3, align 8
  %10 = call noundef zeroext i1 @_ZN11colvarparse10get_keyvalERKNSt7__cxx1112basic_stringIcSt11char_traitsIcESaIcEEEPKcRxRKxNS_10Parse_ModeE(ptr noundef nonnull align 8 dereferenceable(320) %7, ptr noundef nonnull align 8 dereferenceable(32) %1, ptr noundef nonnull @.str.79, ptr noundef nonnull align 8 dereferenceable(8) %8, ptr noundef nonnull align 8 dereferenceable(8) %3, i32 noundef 0)
  ret i32 0
}